; ModuleID = '52/2593.c'
source_filename = "52/2593.c"
target datalayout = "e-m:e-p270:32:32-p271:32:32-p272:64:64-i64:64-f80:128-n8:16:32:64-S128"
target triple = "x86_64-pc-linux-gnu"

@.str = private unnamed_addr constant [6 x i8] c"%d %d\00", align 1
@.str.1 = private unnamed_addr constant [3 x i8] c"%d\00", align 1
@.str.2 = private unnamed_addr constant [4 x i8] c"%d \00", align 1

; Function Attrs: noinline nounwind uwtable
define dso_local void @main() #0 {
  %1 = alloca [100 x i32], align 16
  %2 = alloca i32, align 4
  %3 = alloca i32, align 4
  %4 = alloca i32, align 4
  %5 = alloca [100 x i32], align 16
  %6 = alloca i32, align 4
  %7 = call i32 (i8*, ...) @__isoc99_scanf(i8* getelementptr inbounds ([6 x i8], [6 x i8]* @.str, i64 0, i64 0), i32* %3, i32* %4)
  store i32 0, i32* %2, align 4
  br label %8

8:                                                ; preds = %24, %0
  %9 = load i32, i32* %2, align 4
  %10 = load i32, i32* %3, align 4
  %11 = icmp slt i32 %9, %10
  br i1 %11, label %12, label %27

12:                                               ; preds = %8
  %13 = load i32, i32* %2, align 4
  %14 = sext i32 %13 to i64
  %15 = getelementptr inbounds [100 x i32], [100 x i32]* %1, i64 0, i64 %14
  %16 = call i32 (i8*, ...) @__isoc99_scanf(i8* getelementptr inbounds ([3 x i8], [3 x i8]* @.str.1, i64 0, i64 0), i32* %15)
  %17 = load i32, i32* %2, align 4
  %18 = sext i32 %17 to i64
  %19 = getelementptr inbounds [100 x i32], [100 x i32]* %1, i64 0, i64 %18
  %20 = load i32, i32* %19, align 4
  %21 = load i32, i32* %2, align 4
  %22 = sext i32 %21 to i64
  %23 = getelementptr inbounds [100 x i32], [100 x i32]* %5, i64 0, i64 %22
  store i32 %20, i32* %23, align 4
  br label %24

24:                                               ; preds = %12
  %25 = load i32, i32* %2, align 4
  %26 = add nsw i32 %25, 1
  store i32 %26, i32* %2, align 4
  br label %8

27:                                               ; preds = %8
  %28 = load i32, i32* %3, align 4
  %29 = sub nsw i32 %28, 1
  store i32 %29, i32* %2, align 4
  br label %30

30:                                               ; preds = %43, %27
  %31 = load i32, i32* %2, align 4
  %32 = icmp sge i32 %31, 0
  br i1 %32, label %33, label %46

33:                                               ; preds = %30
  %34 = load i32, i32* %2, align 4
  %35 = sext i32 %34 to i64
  %36 = getelementptr inbounds [100 x i32], [100 x i32]* %1, i64 0, i64 %35
  %37 = load i32, i32* %36, align 4
  %38 = load i32, i32* %2, align 4
  %39 = load i32, i32* %4, align 4
  %40 = add nsw i32 %38, %39
  %41 = sext i32 %40 to i64
  %42 = getelementptr inbounds [100 x i32], [100 x i32]* %1, i64 0, i64 %41
  store i32 %37, i32* %42, align 4
  br label %43

43:                                               ; preds = %33
  %44 = load i32, i32* %2, align 4
  %45 = add nsw i32 %44, -1
  store i32 %45, i32* %2, align 4
  br label %30

46:                                               ; preds = %30
  store i32 0, i32* %2, align 4
  br label %47

47:                                               ; preds = %63, %46
  %48 = load i32, i32* %2, align 4
  %49 = load i32, i32* %4, align 4
  %50 = icmp slt i32 %48, %49
  br i1 %50, label %51, label %66

51:                                               ; preds = %47
  %52 = load i32, i32* %2, align 4
  %53 = load i32, i32* %3, align 4
  %54 = add nsw i32 %52, %53
  %55 = load i32, i32* %4, align 4
  %56 = sub nsw i32 %54, %55
  %57 = sext i32 %56 to i64
  %58 = getelementptr inbounds [100 x i32], [100 x i32]* %5, i64 0, i64 %57
  %59 = load i32, i32* %58, align 4
  %60 = load i32, i32* %2, align 4
  %61 = sext i32 %60 to i64
  %62 = getelementptr inbounds [100 x i32], [100 x i32]* %1, i64 0, i64 %61
  store i32 %59, i32* %62, align 4
  br label %63

63:                                               ; preds = %51
  %64 = load i32, i32* %2, align 4
  %65 = add nsw i32 %64, 1
  store i32 %65, i32* %2, align 4
  br label %47

66:                                               ; preds = %47
  store i32 0, i32* %2, align 4
  br label %67

67:                                               ; preds = %88, %66
  %68 = load i32, i32* %2, align 4
  %69 = load i32, i32* %3, align 4
  %70 = icmp slt i32 %68, %69
  br i1 %70, label %71, label %91

71:                                               ; preds = %67
  %72 = load i32, i32* %2, align 4
  %73 = load i32, i32* %3, align 4
  %74 = sub nsw i32 %73, 1
  %75 = icmp eq i32 %72, %74
  br i1 %75, label %76, label %82

76:                                               ; preds = %71
  %77 = load i32, i32* %2, align 4
  %78 = sext i32 %77 to i64
  %79 = getelementptr inbounds [100 x i32], [100 x i32]* %1, i64 0, i64 %78
  %80 = load i32, i32* %79, align 4
  %81 = call i32 (i8*, ...) @printf(i8* getelementptr inbounds ([3 x i8], [3 x i8]* @.str.1, i64 0, i64 0), i32 %80)
  br label %91

82:                                               ; preds = %71
  %83 = load i32, i32* %2, align 4
  %84 = sext i32 %83 to i64
  %85 = getelementptr inbounds [100 x i32], [100 x i32]* %1, i64 0, i64 %84
  %86 = load i32, i32* %85, align 4
  %87 = call i32 (i8*, ...) @printf(i8* getelementptr inbounds ([4 x i8], [4 x i8]* @.str.2, i64 0, i64 0), i32 %86)
  br label %88

88:                                               ; preds = %82
  %89 = load i32, i32* %2, align 4
  %90 = add nsw i32 %89, 1
  store i32 %90, i32* %2, align 4
  br label %67

91:                                               ; preds = %76, %67
  ret void
}

declare dso_local i32 @__isoc99_scanf(i8*, ...) #1

declare dso_local i32 @printf(i8*, ...) #1


!llvm.module.flags = !{!0}
!llvm.ident = !{!1}

!0 = !{i32 1, !"wchar_size", i32 4}
!1 = !{!"clang version 10.0.0-4ubuntu1 "}
